; Function Attrs: mustprogress uwtable
define hidden void @_ZN2cv4face15FacemarkAAMImpl14image_jacobianENS_3MatES2_S2_S2_RS2_(ptr nocapture nonnull readnone align 8 %0, ptr noundef nonnull %1, ptr noundef %2, ptr noundef %3, ptr noundef %4, ptr noundef nonnull align 8 dereferenceable(96) %5) local_unnamed_addr #3 align 2 personality ptr @__gxx_personality_v0 {
  %7 = alloca %"class.cv::Mat", align 8
  %8 = alloca %"class.cv::Mat", align 8
  %9 = alloca %"class.cv::Mat", align 8
  %10 = alloca %"class.cv::Mat", align 8
  %11 = alloca %"class.cv::_InputArray", align 8
  %12 = alloca %"class.cv::_InputArray", align 8
  %13 = alloca %"class.cv::_OutputArray", align 8
  %14 = alloca %"class.cv::_InputArray", align 8
  %15 = alloca %"class.cv::_InputArray", align 8
  %16 = alloca %"class.cv::_OutputArray", align 8
  %17 = alloca %"class.cv::MatExpr", align 8
  %18 = getelementptr inbounds i8, ptr %3, i64 12
  %19 = load i32, ptr %18, align 4
  call void @_ZN2cv6repeatERKNS_3MatEii(ptr dead_on_unwind nonnull writable sret(%"class.cv::Mat") align 8 %7, ptr noundef nonnull align 8 dereferenceable(96) %1, i32 noundef 1, i32 noundef %19)
  %20 = load i32, ptr %18, align 4
  invoke void @_ZN2cv6repeatERKNS_3MatEii(ptr dead_on_unwind nonnull writable sret(%"class.cv::Mat") align 8 %8, ptr noundef nonnull align 8 dereferenceable(96) %2, i32 noundef 1, i32 noundef %20)
          to label %21 unwind label %48

21:                                               ; preds = %6
  call void @_ZN2cv3MatC1Ev(ptr noundef nonnull align 8 dereferenceable(96) %9) #22
  call void @_ZN2cv3MatC1Ev(ptr noundef nonnull align 8 dereferenceable(96) %10) #22
  %22 = getelementptr inbounds i8, ptr %11, i64 16
  store i32 0, ptr %22, align 8
  %23 = getelementptr inbounds i8, ptr %11, i64 20
  store i32 0, ptr %23, align 4
  store i32 16842752, ptr %11, align 8
  %24 = getelementptr inbounds i8, ptr %11, i64 8
  store ptr %7, ptr %24, align 8
  %25 = getelementptr inbounds i8, ptr %12, i64 16
  store i32 0, ptr %25, align 8
  %26 = getelementptr inbounds i8, ptr %12, i64 20
  store i32 0, ptr %26, align 4
  store i32 16842752, ptr %12, align 8
  %27 = getelementptr inbounds i8, ptr %12, i64 8
  store ptr %3, ptr %27, align 8
  %28 = getelementptr inbounds i8, ptr %13, i64 8
  %29 = getelementptr inbounds i8, ptr %13, i64 16
  store i64 0, ptr %29, align 8
  store i32 33619968, ptr %13, align 8
  store ptr %9, ptr %28, align 8
  invoke void @_ZN2cv8multiplyERKNS_11_InputArrayES2_RKNS_12_OutputArrayEdi(ptr noundef nonnull align 8 dereferenceable(24) %11, ptr noundef nonnull align 8 dereferenceable(24) %12, ptr noundef nonnull align 8 dereferenceable(24) %13, double noundef 1.000000e+00, i32 noundef -1)
          to label %30 unwind label %52

30:                                               ; preds = %21
  %31 = getelementptr inbounds i8, ptr %14, i64 16
  store i32 0, ptr %31, align 8
  %32 = getelementptr inbounds i8, ptr %14, i64 20
  store i32 0, ptr %32, align 4
  store i32 16842752, ptr %14, align 8
  %33 = getelementptr inbounds i8, ptr %14, i64 8
  store ptr %8, ptr %33, align 8
  %34 = getelementptr inbounds i8, ptr %15, i64 16
  store i32 0, ptr %34, align 8
  %35 = getelementptr inbounds i8, ptr %15, i64 20
  store i32 0, ptr %35, align 4
  store i32 16842752, ptr %15, align 8
  %36 = getelementptr inbounds i8, ptr %15, i64 8
  store ptr %4, ptr %36, align 8
  %37 = getelementptr inbounds i8, ptr %16, i64 8
  %38 = getelementptr inbounds i8, ptr %16, i64 16
  store i64 0, ptr %38, align 8
  store i32 33619968, ptr %16, align 8
  store ptr %10, ptr %37, align 8
  invoke void @_ZN2cv8multiplyERKNS_11_InputArrayES2_RKNS_12_OutputArrayEdi(ptr noundef nonnull align 8 dereferenceable(24) %14, ptr noundef nonnull align 8 dereferenceable(24) %15, ptr noundef nonnull align 8 dereferenceable(24) %16, double noundef 1.000000e+00, i32 noundef -1)
          to label %39 unwind label %54

39:                                               ; preds = %30
  invoke void @_ZN2cvplERKNS_3MatES2_(ptr dead_on_unwind nonnull writable sret(%"class.cv::MatExpr") align 8 %17, ptr noundef nonnull align 8 dereferenceable(96) %9, ptr noundef nonnull align 8 dereferenceable(96) %10)
          to label %40 unwind label %50

40:                                               ; preds = %39
  %41 = load ptr, ptr %17, align 8
  %42 = load ptr, ptr %41, align 8
  %43 = getelementptr inbounds i8, ptr %42, i64 24
  %44 = load ptr, ptr %43, align 8
  invoke void %44(ptr noundef nonnull align 8 dereferenceable(8) %41, ptr noundef nonnull align 8 dereferenceable(352) %17, ptr noundef nonnull align 8 dereferenceable(96) %5, i32 noundef -1)
          to label %_ZN2cv3MataSERKNS_7MatExprE.exit unwind label %56

_ZN2cv3MataSERKNS_7MatExprE.exit:                 ; preds = %40
  %45 = getelementptr inbounds i8, ptr %17, i64 208
  call void @_ZN2cv3MatD1Ev(ptr noundef nonnull align 8 dereferenceable(96) %45) #22
  %46 = getelementptr inbounds i8, ptr %17, i64 112
  call void @_ZN2cv3MatD1Ev(ptr noundef nonnull align 8 dereferenceable(96) %46) #22
  %47 = getelementptr inbounds i8, ptr %17, i64 16
  call void @_ZN2cv3MatD1Ev(ptr noundef nonnull align 8 dereferenceable(96) %47) #22
  call void @_ZN2cv3MatD1Ev(ptr noundef nonnull align 8 dereferenceable(96) %10) #22
  call void @_ZN2cv3MatD1Ev(ptr noundef nonnull align 8 dereferenceable(96) %9) #22
  call void @_ZN2cv3MatD1Ev(ptr noundef nonnull align 8 dereferenceable(96) %8) #22
  call void @_ZN2cv3MatD1Ev(ptr noundef nonnull align 8 dereferenceable(96) %7) #22
  ret void

48:                                               ; preds = %6
  %49 = landingpad { ptr, i32 }
          cleanup
  br label %59

50:                                               ; preds = %39
  %51 = landingpad { ptr, i32 }
          cleanup
  br label %58

52:                                               ; preds = %21
  %53 = landingpad { ptr, i32 }
          cleanup
  br label %58

54:                                               ; preds = %30
  %55 = landingpad { ptr, i32 }
          cleanup
  br label %58

56:                                               ; preds = %40
  %57 = landingpad { ptr, i32 }
          cleanup
  call void @_ZN2cv7MatExprD2Ev(ptr noundef nonnull align 8 dereferenceable(352) %17) #22
  br label %58

58:                                               ; preds = %54, %52, %56, %50
  %.pn13 = phi { ptr, i32 } [ %57, %56 ], [ %51, %50 ], [ %53, %52 ], [ %55, %54 ]
  call void @_ZN2cv3MatD1Ev(ptr noundef nonnull align 8 dereferenceable(96) %10) #22
  call void @_ZN2cv3MatD1Ev(ptr noundef nonnull align 8 dereferenceable(96) %9) #22
  call void @_ZN2cv3MatD1Ev(ptr noundef nonnull align 8 dereferenceable(96) %8) #22
  br label %59

59:                                               ; preds = %58, %48
  %.pn13.pn = phi { ptr, i32 } [ %.pn13, %58 ], [ %49, %48 ]
  call void @_ZN2cv3MatD1Ev(ptr noundef nonnull align 8 dereferenceable(96) %7) #22
  resume { ptr, i32 } %.pn13.pn
}